; Function Attrs: nofree norecurse nosync nounwind memory(readwrite, inaccessiblemem: none) uwtable
define internal noundef i32 @lut_planar_16bits(ptr noundef readonly captures(none) %0, ptr noundef readonly captures(none) %1, i32 noundef %2, i32 noundef %3) #5 {
  %5 = getelementptr inbounds nuw i8, ptr %0, i64 72
  %6 = load ptr, ptr %5, align 8, !tbaa !4
  %7 = load ptr, ptr %1, align 8, !tbaa !46
  %8 = getelementptr inbounds nuw i8, ptr %1, i64 8
  %9 = load ptr, ptr %8, align 8, !tbaa !48
  %10 = getelementptr inbounds nuw i8, ptr %7, i64 64
  %11 = getelementptr inbounds nuw i8, ptr %6, i64 524364
  %12 = getelementptr inbounds nuw i8, ptr %6, i64 524360
  %13 = getelementptr inbounds nuw i8, ptr %1, i64 20
  %14 = getelementptr inbounds nuw i8, ptr %1, i64 16
  %15 = getelementptr inbounds nuw i8, ptr %6, i64 8
  %.neg = xor i32 %2, -1
  %16 = getelementptr inbounds nuw i8, ptr %9, i64 64
  br label %17

17:                                               ; preds = %4, %._crit_edge75
  %indvars.iv81 = phi i64 [ 0, %4 ], [ %indvars.iv.next82, %._crit_edge75 ]
  %18 = getelementptr inbounds nuw [8 x ptr], ptr %7, i64 0, i64 %indvars.iv81
  %19 = load ptr, ptr %18, align 8, !tbaa !72
  %.not = icmp eq ptr %19, null
  br i1 %.not, label %.critedge, label %20

20:                                               ; preds = %17
  %21 = getelementptr inbounds nuw [8 x i32], ptr %10, i64 0, i64 %indvars.iv81
  %22 = load i32, ptr %21, align 4, !tbaa !67
  %.not70 = icmp eq i32 %22, 0
  br i1 %.not70, label %.critedge, label %23

23:                                               ; preds = %20
  %24 = trunc i64 %indvars.iv81 to i32
  %25 = add i32 %24, -1
  %or.cond = icmp ult i32 %25, 2
  br i1 %or.cond, label %26, label %29

26:                                               ; preds = %23
  %27 = load i32, ptr %11, align 4, !tbaa !62
  %28 = load i32, ptr %12, align 8, !tbaa !60
  br label %29

29:                                               ; preds = %26, %23
  %30 = phi i32 [ %27, %26 ], [ 0, %23 ]
  %31 = phi i32 [ %28, %26 ], [ 0, %23 ]
  %32 = load i32, ptr %13, align 4, !tbaa !56
  %33 = sub nsw i32 0, %32
  %34 = ashr i32 %33, %30
  %35 = load i32, ptr %14, align 8, !tbaa !49
  %36 = sub nsw i32 0, %35
  %37 = ashr i32 %36, %31
  %38 = sub nsw i32 0, %37
  %39 = getelementptr inbounds nuw [4 x [65536 x i16]], ptr %15, i64 0, i64 %indvars.iv81
  %40 = mul i32 %34, %2
  %41 = sub i32 0, %40
  %42 = sdiv i32 %41, %3
  %43 = mul i32 %34, %.neg
  %44 = sdiv i32 %43, %3
  %45 = icmp slt i32 %42, %44
  br i1 %45, label %.preheader.lr.ph, label %._crit_edge75

.preheader.lr.ph:                                 ; preds = %29
  %46 = getelementptr inbounds nuw [8 x i32], ptr %16, i64 0, i64 %indvars.iv81
  %47 = load i32, ptr %46, align 4, !tbaa !67
  %48 = sdiv i32 %47, 2
  %49 = sdiv i32 %22, 2
  %50 = icmp slt i32 %37, 0
  %51 = sext i32 %49 to i64
  %52 = sext i32 %48 to i64
  br i1 %50, label %.preheader.us.preheader, label %._crit_edge75

.preheader.us.preheader:                          ; preds = %.preheader.lr.ph
  %53 = mul nsw i32 %42, %49
  %54 = sext i32 %53 to i64
  %55 = getelementptr inbounds i16, ptr %19, i64 %54
  %56 = getelementptr inbounds nuw [8 x ptr], ptr %9, i64 0, i64 %indvars.iv81
  %57 = load ptr, ptr %56, align 8, !tbaa !72
  %58 = mul nsw i32 %48, %42
  %59 = sext i32 %58 to i64
  %60 = getelementptr inbounds i16, ptr %57, i64 %59
  %wide.trip.count = zext nneg i32 %38 to i64
  br label %.preheader.us

.preheader.us:                                    ; preds = %.preheader.us.preheader, %._crit_edge.us
  %.074.us = phi i32 [ %70, %._crit_edge.us ], [ %42, %.preheader.us.preheader ]
  %.06873.us = phi ptr [ %68, %._crit_edge.us ], [ %55, %.preheader.us.preheader ]
  %.06972.us = phi ptr [ %69, %._crit_edge.us ], [ %60, %.preheader.us.preheader ]
  br label %61

61:                                               ; preds = %.preheader.us, %61
  %indvars.iv = phi i64 [ 0, %.preheader.us ], [ %indvars.iv.next, %61 ]
  %62 = getelementptr inbounds nuw i16, ptr %.06873.us, i64 %indvars.iv
  %63 = load i16, ptr %62, align 2, !tbaa !73
  %64 = zext i16 %63 to i64
  %65 = getelementptr inbounds nuw i16, ptr %39, i64 %64
  %66 = load i16, ptr %65, align 2, !tbaa !73
  %67 = getelementptr inbounds nuw i16, ptr %.06972.us, i64 %indvars.iv
  store i16 %66, ptr %67, align 2, !tbaa !73
  %indvars.iv.next = add nuw nsw i64 %indvars.iv, 1
  %exitcond.not = icmp eq i64 %indvars.iv.next, %wide.trip.count
  br i1 %exitcond.not, label %._crit_edge.us, label %61, !llvm.loop !81

._crit_edge.us:                                   ; preds = %61
  %68 = getelementptr inbounds i16, ptr %.06873.us, i64 %51
  %69 = getelementptr inbounds i16, ptr %.06972.us, i64 %52
  %70 = add nsw i32 %.074.us, 1
  %exitcond80.not = icmp eq i32 %70, %44
  br i1 %exitcond80.not, label %._crit_edge75, label %.preheader.us, !llvm.loop !82

._crit_edge75:                                    ; preds = %._crit_edge.us, %.preheader.lr.ph, %29
  %indvars.iv.next82 = add nuw nsw i64 %indvars.iv81, 1
  %exitcond84.not = icmp eq i64 %indvars.iv.next82, 4
  br i1 %exitcond84.not, label %.critedge, label %17, !llvm.loop !83

.critedge:                                        ; preds = %17, %._crit_edge75, %20
  ret i32 0
}